; Function Attrs: mustprogress uwtable
define internal fastcc void @_ZN5arrow4util12_GLOBAL__N_122AsyncTaskSchedulerImpl14OnTaskFinishedERKNS_6StatusE(ptr noundef nonnull align 8 dereferenceable(112) %this, ptr noundef nonnull align 8 dereferenceable(8) %st) unnamed_addr #0 align 2 personality ptr @__gxx_personality_v0 {
entry:
  %lk = alloca %"class.std::unique_lock", align 8
  %mutex_ = getelementptr inbounds i8, ptr %this, i64 40
  store ptr %mutex_, ptr %lk, align 8
  %_M_owns.i = getelementptr inbounds i8, ptr %lk, i64 8
  %call1.i.i.i.i = tail call noundef i32 @pthread_mutex_lock(ptr noundef nonnull %mutex_) #20
  %tobool.not.i.i.i = icmp eq i32 %call1.i.i.i.i, 0
  br i1 %tobool.not.i.i.i, label %_ZNSt11unique_lockISt5mutexEC2ERS0_.exit, label %if.then.i.i.i

if.then.i.i.i:                                    ; preds = %entry
  tail call void @_ZSt20__throw_system_errori(i32 noundef %call1.i.i.i.i) #23
  unreachable

_ZNSt11unique_lockISt5mutexEC2ERS0_.exit:         ; preds = %entry
  store i8 1, ptr %_M_owns.i, align 8
  %0 = load ptr, ptr %st, align 8
  %cmp.i = icmp eq ptr %0, null
  %running_tasks_3 = getelementptr inbounds i8, ptr %this, i64 24
  %1 = load i32, ptr %running_tasks_3, align 8
  %dec4 = add nsw i32 %1, -1
  store i32 %dec4, ptr %running_tasks_3, align 8
  br i1 %cmp.i, label %if.end, label %if.then

if.then:                                          ; preds = %_ZNSt11unique_lockISt5mutexEC2ERS0_.exit
  invoke fastcc void @_ZN5arrow4util12_GLOBAL__N_122AsyncTaskSchedulerImpl13AbortUnlockedERKNS_6StatusEOSt11unique_lockISt5mutexE(ptr noundef nonnull align 8 dereferenceable(112) %this, ptr noundef nonnull align 8 dereferenceable(8) %st, ptr noundef nonnull align 8 dereferenceable(9) %lk)
          to label %cleanup unwind label %lpad

lpad:                                             ; preds = %if.end, %if.then
  %2 = landingpad { ptr, i32 }
          cleanup
  %3 = load i8, ptr %_M_owns.i, align 8
  %4 = and i8 %3, 1
  %tobool.not.i = icmp eq i8 %4, 0
  br i1 %tobool.not.i, label %_ZNSt11unique_lockISt5mutexED2Ev.exit, label %if.else.i.i

if.else.i.i:                                      ; preds = %lpad
  %5 = load ptr, ptr %lk, align 8
  %tobool2.not.i.i = icmp eq ptr %5, null
  br i1 %tobool2.not.i.i, label %_ZNSt11unique_lockISt5mutexED2Ev.exit, label %if.then3.i.i

if.then3.i.i:                                     ; preds = %if.else.i.i
  %call1.i.i.i.i3 = tail call noundef i32 @pthread_mutex_unlock(ptr noundef nonnull %5) #20
  br label %_ZNSt11unique_lockISt5mutexED2Ev.exit

_ZNSt11unique_lockISt5mutexED2Ev.exit:            ; preds = %lpad, %if.else.i.i, %if.then3.i.i
  resume { ptr, i32 } %2

if.end:                                           ; preds = %_ZNSt11unique_lockISt5mutexEC2ERS0_.exit
  invoke fastcc void @_ZN5arrow4util12_GLOBAL__N_122AsyncTaskSchedulerImpl16MaybeEndUnlockedEOSt11unique_lockISt5mutexE(ptr noundef nonnull align 8 dereferenceable(112) %this, ptr noundef nonnull align 8 dereferenceable(9) %lk)
          to label %cleanup unwind label %lpad

cleanup:                                          ; preds = %if.end, %if.then
  %6 = load i8, ptr %_M_owns.i, align 8
  %7 = and i8 %6, 1
  %tobool.not.i5 = icmp eq i8 %7, 0
  br i1 %tobool.not.i5, label %_ZNSt11unique_lockISt5mutexED2Ev.exit10, label %if.else.i.i6

if.else.i.i6:                                     ; preds = %cleanup
  %8 = load ptr, ptr %lk, align 8
  %tobool2.not.i.i7 = icmp eq ptr %8, null
  br i1 %tobool2.not.i.i7, label %_ZNSt11unique_lockISt5mutexED2Ev.exit10, label %if.then3.i.i8

if.then3.i.i8:                                    ; preds = %if.else.i.i6
  %call1.i.i.i.i9 = tail call noundef i32 @pthread_mutex_unlock(ptr noundef nonnull %8) #20
  br label %_ZNSt11unique_lockISt5mutexED2Ev.exit10

_ZNSt11unique_lockISt5mutexED2Ev.exit10:          ; preds = %cleanup, %if.else.i.i6, %if.then3.i.i8
  ret void
}